
signal_generator.elf:     file format elf32-avr

Sections:
Idx Name          Size      VMA       LMA       File off  Algn
  0 .data         00000214  00800100  000003b6  0000044a  2**0
                  CONTENTS, ALLOC, LOAD, DATA
  1 .text         000003b6  00000000  00000000  00000094  2**1
                  CONTENTS, ALLOC, LOAD, READONLY, CODE
  2 .bss          00000086  00800314  00800314  0000065e  2**0
                  ALLOC
  3 .comment      00000030  00000000  00000000  0000065e  2**0
                  CONTENTS, READONLY
  4 .note.gnu.avr.deviceinfo 00000040  00000000  00000000  00000690  2**2
                  CONTENTS, READONLY
  5 .debug_aranges 000000e8  00000000  00000000  000006d0  2**0
                  CONTENTS, READONLY, DEBUGGING
  6 .debug_info   00000ffe  00000000  00000000  000007b8  2**0
                  CONTENTS, READONLY, DEBUGGING
  7 .debug_abbrev 000008b2  00000000  00000000  000017b6  2**0
                  CONTENTS, READONLY, DEBUGGING
  8 .debug_line   0000068f  00000000  00000000  00002068  2**0
                  CONTENTS, READONLY, DEBUGGING
  9 .debug_frame  00000218  00000000  00000000  000026f8  2**2
                  CONTENTS, READONLY, DEBUGGING
 10 .debug_str    000005a1  00000000  00000000  00002910  2**0
                  CONTENTS, READONLY, DEBUGGING
 11 .debug_loc    00000545  00000000  00000000  00002eb1  2**0
                  CONTENTS, READONLY, DEBUGGING
 12 .debug_ranges 000000c0  00000000  00000000  000033f6  2**0
                  CONTENTS, READONLY, DEBUGGING

Disassembly of section .text:

00000000 <__vectors>:
   0:	0c 94 34 00 	jmp	0x68	; 0x68 <__ctors_end>
   4:	0c 94 51 00 	jmp	0xa2	; 0xa2 <__bad_interrupt>
   8:	0c 94 51 00 	jmp	0xa2	; 0xa2 <__bad_interrupt>
   c:	0c 94 51 00 	jmp	0xa2	; 0xa2 <__bad_interrupt>
  10:	0c 94 51 00 	jmp	0xa2	; 0xa2 <__bad_interrupt>
  14:	0c 94 51 00 	jmp	0xa2	; 0xa2 <__bad_interrupt>
  18:	0c 94 51 00 	jmp	0xa2	; 0xa2 <__bad_interrupt>
  1c:	0c 94 51 00 	jmp	0xa2	; 0xa2 <__bad_interrupt>
  20:	0c 94 51 00 	jmp	0xa2	; 0xa2 <__bad_interrupt>
  24:	0c 94 51 00 	jmp	0xa2	; 0xa2 <__bad_interrupt>
  28:	0c 94 51 00 	jmp	0xa2	; 0xa2 <__bad_interrupt>
  2c:	0c 94 51 00 	jmp	0xa2	; 0xa2 <__bad_interrupt>
  30:	0c 94 51 00 	jmp	0xa2	; 0xa2 <__bad_interrupt>
  34:	0c 94 51 00 	jmp	0xa2	; 0xa2 <__bad_interrupt>
  38:	0c 94 f6 00 	jmp	0x1ec	; 0x1ec <__vector_14>
  3c:	0c 94 51 00 	jmp	0xa2	; 0xa2 <__bad_interrupt>
  40:	0c 94 51 00 	jmp	0xa2	; 0xa2 <__bad_interrupt>
  44:	0c 94 51 00 	jmp	0xa2	; 0xa2 <__bad_interrupt>
  48:	0c 94 6d 01 	jmp	0x2da	; 0x2da <__vector_18>
  4c:	0c 94 9b 01 	jmp	0x336	; 0x336 <__vector_19>
  50:	0c 94 51 00 	jmp	0xa2	; 0xa2 <__bad_interrupt>
  54:	0c 94 51 00 	jmp	0xa2	; 0xa2 <__bad_interrupt>
  58:	0c 94 51 00 	jmp	0xa2	; 0xa2 <__bad_interrupt>
  5c:	0c 94 51 00 	jmp	0xa2	; 0xa2 <__bad_interrupt>
  60:	0c 94 51 00 	jmp	0xa2	; 0xa2 <__bad_interrupt>
  64:	0c 94 51 00 	jmp	0xa2	; 0xa2 <__bad_interrupt>

00000068 <__ctors_end>:
  68:	11 24       	eor	r1, r1
  6a:	1f be       	out	0x3f, r1	; 63
  6c:	cf ef       	ldi	r28, 0xFF	; 255
  6e:	d8 e0       	ldi	r29, 0x08	; 8
  70:	de bf       	out	0x3e, r29	; 62
  72:	cd bf       	out	0x3d, r28	; 61

00000074 <__do_copy_data>:
  74:	13 e0       	ldi	r17, 0x03	; 3
  76:	a0 e0       	ldi	r26, 0x00	; 0
  78:	b1 e0       	ldi	r27, 0x01	; 1
  7a:	e6 eb       	ldi	r30, 0xB6	; 182
  7c:	f3 e0       	ldi	r31, 0x03	; 3
  7e:	02 c0       	rjmp	.+4      	; 0x84 <__do_copy_data+0x10>
  80:	05 90       	lpm	r0, Z+
  82:	0d 92       	st	X+, r0
  84:	a4 31       	cpi	r26, 0x14	; 20
  86:	b1 07       	cpc	r27, r17
  88:	d9 f7       	brne	.-10     	; 0x80 <__do_copy_data+0xc>

0000008a <__do_clear_bss>:
  8a:	23 e0       	ldi	r18, 0x03	; 3
  8c:	a4 e1       	ldi	r26, 0x14	; 20
  8e:	b3 e0       	ldi	r27, 0x03	; 3
  90:	01 c0       	rjmp	.+2      	; 0x94 <.do_clear_bss_start>

00000092 <.do_clear_bss_loop>:
  92:	1d 92       	st	X+, r1

00000094 <.do_clear_bss_start>:
  94:	aa 39       	cpi	r26, 0x9A	; 154
  96:	b2 07       	cpc	r27, r18
  98:	e1 f7       	brne	.-8      	; 0x92 <.do_clear_bss_loop>
  9a:	0e 94 84 00 	call	0x108	; 0x108 <main>
  9e:	0c 94 d9 01 	jmp	0x3b2	; 0x3b2 <_exit>

000000a2 <__bad_interrupt>:
  a2:	0c 94 00 00 	jmp	0	; 0x0 <__vectors>

000000a6 <GPIO_config_output>:
/* GPIO_config_input_pullup */
void GPIO_config_input_pullup(volatile uint8_t *reg_name, uint8_t pin_num)
{
    *reg_name = *reg_name & ~(1<<pin_num);  // Data Direction Register
    *reg_name++;                    // Change pointer to Data Register
    *reg_name = *reg_name | (1<<pin_num);   // Data Register
  a6:	fc 01       	movw	r30, r24
  a8:	40 81       	ld	r20, Z
  aa:	21 e0       	ldi	r18, 0x01	; 1
  ac:	30 e0       	ldi	r19, 0x00	; 0
  ae:	02 c0       	rjmp	.+4      	; 0xb4 <GPIO_config_output+0xe>
  b0:	22 0f       	add	r18, r18
  b2:	33 1f       	adc	r19, r19
  b4:	6a 95       	dec	r22
  b6:	e2 f7       	brpl	.-8      	; 0xb0 <GPIO_config_output+0xa>
  b8:	24 2b       	or	r18, r20
  ba:	20 83       	st	Z, r18
  bc:	08 95       	ret

000000be <GPIO_write_low>:

/*--------------------------------------------------------------------*/

/* GPIO_write_low */
void GPIO_write_low(volatile uint8_t *reg_name, uint8_t pin_num)
{
  be:	fc 01       	movw	r30, r24
    *reg_name = *reg_name & ~(1<<pin_num); // Write low-value to a set bit in given register
  c0:	90 81       	ld	r25, Z
  c2:	21 e0       	ldi	r18, 0x01	; 1
  c4:	30 e0       	ldi	r19, 0x00	; 0
  c6:	02 c0       	rjmp	.+4      	; 0xcc <GPIO_write_low+0xe>
  c8:	22 0f       	add	r18, r18
  ca:	33 1f       	adc	r19, r19
  cc:	6a 95       	dec	r22
  ce:	e2 f7       	brpl	.-8      	; 0xc8 <GPIO_write_low+0xa>
  d0:	20 95       	com	r18
  d2:	29 23       	and	r18, r25
  d4:	20 83       	st	Z, r18
  d6:	08 95       	ret

000000d8 <GPIO_write_high>:
/*--------------------------------------------------------------------*/

/* GPIO_write_high */
void GPIO_write_high(volatile uint8_t *reg_name, uint8_t pin_num)
{
	*reg_name |= (1<<pin_num); //Write high-value to a set bit in given register
  d8:	fc 01       	movw	r30, r24
  da:	40 81       	ld	r20, Z
  dc:	21 e0       	ldi	r18, 0x01	; 1
  de:	30 e0       	ldi	r19, 0x00	; 0
  e0:	02 c0       	rjmp	.+4      	; 0xe6 <GPIO_write_high+0xe>
  e2:	22 0f       	add	r18, r18
  e4:	33 1f       	adc	r19, r19
  e6:	6a 95       	dec	r22
  e8:	e2 f7       	brpl	.-8      	; 0xe2 <GPIO_write_high+0xa>
  ea:	24 2b       	or	r18, r20
  ec:	20 83       	st	Z, r18
  ee:	08 95       	ret

000000f0 <GPIO_toggle>:
/*--------------------------------------------------------------------*/

/* GPIO_toggle */
void GPIO_toggle(volatile uint8_t *reg_name, uint8_t pin_num)
{
	*reg_name ^= (1<<pin_num);  // Flib given bit in register
  f0:	fc 01       	movw	r30, r24
  f2:	40 81       	ld	r20, Z
  f4:	21 e0       	ldi	r18, 0x01	; 1
  f6:	30 e0       	ldi	r19, 0x00	; 0
  f8:	02 c0       	rjmp	.+4      	; 0xfe <GPIO_toggle+0xe>
  fa:	22 0f       	add	r18, r18
  fc:	33 1f       	adc	r19, r19
  fe:	6a 95       	dec	r22
 100:	e2 f7       	brpl	.-8      	; 0xfa <GPIO_toggle+0xa>
 102:	24 27       	eor	r18, r20
 104:	20 83       	st	Z, r18
 106:	08 95       	ret

00000108 <main>:


int main(void)
{
	//############# TIMER/COUNTER0 SETTINGS
	TIM0_set_mode_CTC();			// Set timer to CTC mode
 108:	85 b5       	in	r24, 0x25	; 37
 10a:	87 7f       	andi	r24, 0xF7	; 247
 10c:	85 bd       	out	0x25, r24	; 37
 10e:	84 b5       	in	r24, 0x24	; 36
 110:	82 60       	ori	r24, 0x02	; 2
 112:	84 bd       	out	0x24, r24	; 36
 114:	84 b5       	in	r24, 0x24	; 36
 116:	8e 7f       	andi	r24, 0xFE	; 254
 118:	84 bd       	out	0x24, r24	; 36
	TIM0_overflow_16ms();
 11a:	85 b5       	in	r24, 0x25	; 37
 11c:	8d 7f       	andi	r24, 0xFD	; 253
 11e:	85 bd       	out	0x25, r24	; 37
 120:	85 b5       	in	r24, 0x25	; 37
 122:	85 60       	ori	r24, 0x05	; 5
 124:	85 bd       	out	0x25, r24	; 37
	TIM0_CTC_A_interrupt_enable();	// Interrupt enable
 126:	ee e6       	ldi	r30, 0x6E	; 110
 128:	f0 e0       	ldi	r31, 0x00	; 0
 12a:	80 81       	ld	r24, Z
 12c:	82 60       	ori	r24, 0x02	; 2
 12e:	80 83       	st	Z, r24
	OCR0A = COMP_REG_A_MASK;		// Set Compare register A mask for 1 MHz frequency
 130:	8e e5       	ldi	r24, 0x5E	; 94
 132:	87 bd       	out	0x27, r24	; 39
	GPIO_config_output(&DDRC, PC0);
 134:	60 e0       	ldi	r22, 0x00	; 0
 136:	87 e2       	ldi	r24, 0x27	; 39
 138:	90 e0       	ldi	r25, 0x00	; 0
 13a:	0e 94 53 00 	call	0xa6	; 0xa6 <GPIO_config_output>
	GPIO_write_low(&PORTC, PC0);
 13e:	60 e0       	ldi	r22, 0x00	; 0
 140:	88 e2       	ldi	r24, 0x28	; 40
 142:	90 e0       	ldi	r25, 0x00	; 0
 144:	0e 94 5f 00 	call	0xbe	; 0xbe <GPIO_write_low>
	// SET output pins for R2R ladder
	GPIO_config_output(&DDRB, R0);
 148:	60 e0       	ldi	r22, 0x00	; 0
 14a:	84 e2       	ldi	r24, 0x24	; 36
 14c:	90 e0       	ldi	r25, 0x00	; 0
 14e:	0e 94 53 00 	call	0xa6	; 0xa6 <GPIO_config_output>
	GPIO_write_low(&PORTB, R0);
 152:	60 e0       	ldi	r22, 0x00	; 0
 154:	85 e2       	ldi	r24, 0x25	; 37
 156:	90 e0       	ldi	r25, 0x00	; 0
 158:	0e 94 5f 00 	call	0xbe	; 0xbe <GPIO_write_low>
	GPIO_config_output(&DDRB, R1);
 15c:	61 e0       	ldi	r22, 0x01	; 1
 15e:	84 e2       	ldi	r24, 0x24	; 36
 160:	90 e0       	ldi	r25, 0x00	; 0
 162:	0e 94 53 00 	call	0xa6	; 0xa6 <GPIO_config_output>
	GPIO_write_low(&PORTB, R1);
 166:	61 e0       	ldi	r22, 0x01	; 1
 168:	85 e2       	ldi	r24, 0x25	; 37
 16a:	90 e0       	ldi	r25, 0x00	; 0
 16c:	0e 94 5f 00 	call	0xbe	; 0xbe <GPIO_write_low>
	GPIO_config_output(&DDRB, R2);
 170:	62 e0       	ldi	r22, 0x02	; 2
 172:	84 e2       	ldi	r24, 0x24	; 36
 174:	90 e0       	ldi	r25, 0x00	; 0
 176:	0e 94 53 00 	call	0xa6	; 0xa6 <GPIO_config_output>
	GPIO_write_low(&PORTB, R2);
 17a:	62 e0       	ldi	r22, 0x02	; 2
 17c:	85 e2       	ldi	r24, 0x25	; 37
 17e:	90 e0       	ldi	r25, 0x00	; 0
 180:	0e 94 5f 00 	call	0xbe	; 0xbe <GPIO_write_low>
	GPIO_config_output(&DDRB, R3);
 184:	63 e0       	ldi	r22, 0x03	; 3
 186:	84 e2       	ldi	r24, 0x24	; 36
 188:	90 e0       	ldi	r25, 0x00	; 0
 18a:	0e 94 53 00 	call	0xa6	; 0xa6 <GPIO_config_output>
	GPIO_write_low(&PORTB, R3);
 18e:	63 e0       	ldi	r22, 0x03	; 3
 190:	85 e2       	ldi	r24, 0x25	; 37
 192:	90 e0       	ldi	r25, 0x00	; 0
 194:	0e 94 5f 00 	call	0xbe	; 0xbe <GPIO_write_low>
	GPIO_config_output(&DDRB, R4);
 198:	64 e0       	ldi	r22, 0x04	; 4
 19a:	84 e2       	ldi	r24, 0x24	; 36
 19c:	90 e0       	ldi	r25, 0x00	; 0
 19e:	0e 94 53 00 	call	0xa6	; 0xa6 <GPIO_config_output>
	GPIO_write_low(&PORTB, R4);
 1a2:	64 e0       	ldi	r22, 0x04	; 4
 1a4:	85 e2       	ldi	r24, 0x25	; 37
 1a6:	90 e0       	ldi	r25, 0x00	; 0
 1a8:	0e 94 5f 00 	call	0xbe	; 0xbe <GPIO_write_low>
	GPIO_config_output(&DDRB, R5);
 1ac:	65 e0       	ldi	r22, 0x05	; 5
 1ae:	84 e2       	ldi	r24, 0x24	; 36
 1b0:	90 e0       	ldi	r25, 0x00	; 0
 1b2:	0e 94 53 00 	call	0xa6	; 0xa6 <GPIO_config_output>
	GPIO_write_low(&PORTB, R5);
 1b6:	65 e0       	ldi	r22, 0x05	; 5
 1b8:	85 e2       	ldi	r24, 0x25	; 37
 1ba:	90 e0       	ldi	r25, 0x00	; 0
 1bc:	0e 94 5f 00 	call	0xbe	; 0xbe <GPIO_write_low>
	GPIO_config_output(&DDRB, R6);
 1c0:	66 e0       	ldi	r22, 0x06	; 6
 1c2:	84 e2       	ldi	r24, 0x24	; 36
 1c4:	90 e0       	ldi	r25, 0x00	; 0
 1c6:	0e 94 53 00 	call	0xa6	; 0xa6 <GPIO_config_output>
	GPIO_write_low(&PORTB, R6);
 1ca:	66 e0       	ldi	r22, 0x06	; 6
 1cc:	85 e2       	ldi	r24, 0x25	; 37
 1ce:	90 e0       	ldi	r25, 0x00	; 0
 1d0:	0e 94 5f 00 	call	0xbe	; 0xbe <GPIO_write_low>
	GPIO_config_output(&DDRB, R7);
 1d4:	67 e0       	ldi	r22, 0x07	; 7
 1d6:	84 e2       	ldi	r24, 0x24	; 36
 1d8:	90 e0       	ldi	r25, 0x00	; 0
 1da:	0e 94 53 00 	call	0xa6	; 0xa6 <GPIO_config_output>
	GPIO_write_low(&PORTB, R7);
 1de:	67 e0       	ldi	r22, 0x07	; 7
 1e0:	85 e2       	ldi	r24, 0x25	; 37
 1e2:	90 e0       	ldi	r25, 0x00	; 0
 1e4:	0e 94 5f 00 	call	0xbe	; 0xbe <GPIO_write_low>
	
	// Enables interrupts by setting the global interrupt mask
	sei();
 1e8:	78 94       	sei
 1ea:	ff cf       	rjmp	.-2      	; 0x1ea <main+0xe2>

000001ec <__vector_14>:
		//PORTB = 0b11111111;
    }
}

ISR(TIMER0_COMPA_vect)
{
 1ec:	1f 92       	push	r1
 1ee:	0f 92       	push	r0
 1f0:	0f b6       	in	r0, 0x3f	; 63
 1f2:	0f 92       	push	r0
 1f4:	11 24       	eor	r1, r1
 1f6:	2f 93       	push	r18
 1f8:	3f 93       	push	r19
 1fa:	4f 93       	push	r20
 1fc:	5f 93       	push	r21
 1fe:	6f 93       	push	r22
 200:	7f 93       	push	r23
 202:	8f 93       	push	r24
 204:	9f 93       	push	r25
 206:	af 93       	push	r26
 208:	bf 93       	push	r27
 20a:	cf 93       	push	r28
 20c:	df 93       	push	r29
 20e:	ef 93       	push	r30
 210:	ff 93       	push	r31
	};
		// return amplitude value based on currently pressed button
		
		//keys are index from 0 to 15, thus row frquency (index 0-3) is given by: key/4; and and column frequency (index 4-7)  is given by: 4 + key % 4;
		
		signal_amplitude = (sinus_table[gen_sig_sample_id(&sample_cnt_1, &samples_set[key/4])] + sinus_table[gen_sig_sample_id(&sample_cnt_2, &samples_set[4 + (key % 4)])])/2;  
 212:	64 e0       	ldi	r22, 0x04	; 4
 214:	71 e0       	ldi	r23, 0x01	; 1
 216:	82 e0       	ldi	r24, 0x02	; 2
 218:	91 e0       	ldi	r25, 0x01	; 1
 21a:	0e 94 56 01 	call	0x2ac	; 0x2ac <gen_sig_sample_id>
 21e:	8c 5e       	subi	r24, 0xEC	; 236
 220:	9e 4f       	sbci	r25, 0xFE	; 254
 222:	fc 01       	movw	r30, r24
 224:	c0 81       	ld	r28, Z
 226:	d0 e0       	ldi	r29, 0x00	; 0
 228:	6c e0       	ldi	r22, 0x0C	; 12
 22a:	71 e0       	ldi	r23, 0x01	; 1
 22c:	80 e0       	ldi	r24, 0x00	; 0
 22e:	91 e0       	ldi	r25, 0x01	; 1
 230:	0e 94 56 01 	call	0x2ac	; 0x2ac <gen_sig_sample_id>
 234:	8c 5e       	subi	r24, 0xEC	; 236
 236:	9e 4f       	sbci	r25, 0xFE	; 254
 238:	fc 01       	movw	r30, r24
 23a:	80 81       	ld	r24, Z
 23c:	c8 0f       	add	r28, r24
 23e:	d1 1d       	adc	r29, r1
 240:	d5 95       	asr	r29
 242:	c7 95       	ror	r28
 244:	c0 93 14 03 	sts	0x0314, r28	; 0x800314 <__data_end>
		sample_cnt_1 = sample_cnt_1 + 1;
 248:	80 91 02 01 	lds	r24, 0x0102	; 0x800102 <sample_cnt_1.1992>
 24c:	90 91 03 01 	lds	r25, 0x0103	; 0x800103 <sample_cnt_1.1992+0x1>
 250:	01 96       	adiw	r24, 0x01	; 1
 252:	90 93 03 01 	sts	0x0103, r25	; 0x800103 <sample_cnt_1.1992+0x1>
 256:	80 93 02 01 	sts	0x0102, r24	; 0x800102 <sample_cnt_1.1992>
		sample_cnt_2 = sample_cnt_2 + 1;									// increment sample
 25a:	80 91 00 01 	lds	r24, 0x0100	; 0x800100 <__data_start>
 25e:	90 91 01 01 	lds	r25, 0x0101	; 0x800101 <__data_start+0x1>
 262:	01 96       	adiw	r24, 0x01	; 1
 264:	90 93 01 01 	sts	0x0101, r25	; 0x800101 <__data_start+0x1>
 268:	80 93 00 01 	sts	0x0100, r24	; 0x800100 <__data_start>
	//uint8_t button;
	GPIO_toggle(&PORTC, PC0);
 26c:	60 e0       	ldi	r22, 0x00	; 0
 26e:	88 e2       	ldi	r24, 0x28	; 40
 270:	90 e0       	ldi	r25, 0x00	; 0
 272:	0e 94 78 00 	call	0xf0	; 0xf0 <GPIO_toggle>
	PORTB = signal_amplitude;
 276:	80 91 14 03 	lds	r24, 0x0314	; 0x800314 <__data_end>
 27a:	85 b9       	out	0x05, r24	; 5
	//PORTB = 0b11111111;
	GPIO_write_high(&PORTB, R6);
 27c:	66 e0       	ldi	r22, 0x06	; 6
 27e:	85 e2       	ldi	r24, 0x25	; 37
 280:	90 e0       	ldi	r25, 0x00	; 0
 282:	0e 94 6c 00 	call	0xd8	; 0xd8 <GPIO_write_high>
}
 286:	ff 91       	pop	r31
 288:	ef 91       	pop	r30
 28a:	df 91       	pop	r29
 28c:	cf 91       	pop	r28
 28e:	bf 91       	pop	r27
 290:	af 91       	pop	r26
 292:	9f 91       	pop	r25
 294:	8f 91       	pop	r24
 296:	7f 91       	pop	r23
 298:	6f 91       	pop	r22
 29a:	5f 91       	pop	r21
 29c:	4f 91       	pop	r20
 29e:	3f 91       	pop	r19
 2a0:	2f 91       	pop	r18
 2a2:	0f 90       	pop	r0
 2a4:	0f be       	out	0x3f, r0	; 63
 2a6:	0f 90       	pop	r0
 2a8:	1f 90       	pop	r1
 2aa:	18 95       	reti

000002ac <gen_sig_sample_id>:
#include "signal_generator.h"

/* Function definitions ----------------------------------------*/

uint16_t gen_sig_sample_id(uint16_t *sample, uint16_t *sample_vol)
{
 2ac:	cf 93       	push	r28
 2ae:	df 93       	push	r29
 2b0:	ec 01       	movw	r28, r24
	uint16_t table_sample = ((512 * (*sample))/ *sample_vol) ;  // vypocet vzorku, ktery se ma zpracovat. Jelikoz je pouzity jako index v lookup table
 2b2:	e8 81       	ld	r30, Y
 2b4:	f9 81       	ldd	r31, Y+1	; 0x01
 2b6:	db 01       	movw	r26, r22
 2b8:	2d 91       	ld	r18, X+
 2ba:	3c 91       	ld	r19, X
 2bc:	9e 2f       	mov	r25, r30
 2be:	99 0f       	add	r25, r25
 2c0:	80 e0       	ldi	r24, 0x00	; 0
 2c2:	b9 01       	movw	r22, r18
 2c4:	0e 94 c5 01 	call	0x38a	; 0x38a <__udivmodhi4>
 2c8:	cb 01       	movw	r24, r22
	if(*sample >= *sample_vol) *sample = 0;
 2ca:	e2 17       	cp	r30, r18
 2cc:	f3 07       	cpc	r31, r19
 2ce:	10 f0       	brcs	.+4      	; 0x2d4 <gen_sig_sample_id+0x28>
 2d0:	19 82       	std	Y+1, r1	; 0x01
 2d2:	18 82       	st	Y, r1
	return table_sample;
}
 2d4:	df 91       	pop	r29
 2d6:	cf 91       	pop	r28
 2d8:	08 95       	ret

000002da <__vector_18>:

/*************************************************************************
 * Function: UART Receive Complete interrupt
 * Purpose:  called when the UART has received a character
 **************************************************************************/
{
 2da:	1f 92       	push	r1
 2dc:	0f 92       	push	r0
 2de:	0f b6       	in	r0, 0x3f	; 63
 2e0:	0f 92       	push	r0
 2e2:	11 24       	eor	r1, r1
 2e4:	2f 93       	push	r18
 2e6:	8f 93       	push	r24
 2e8:	9f 93       	push	r25
 2ea:	ef 93       	push	r30
 2ec:	ff 93       	push	r31
    unsigned char usr;
    unsigned char lastRxError = 0;


    /* read UART status register and UART data register */
    usr  = UART0_STATUS;
 2ee:	80 91 c0 00 	lds	r24, 0x00C0	; 0x8000c0 <__DATA_REGION_ORIGIN__+0x60>
    data = UART0_DATA;
 2f2:	20 91 c6 00 	lds	r18, 0x00C6	; 0x8000c6 <__DATA_REGION_ORIGIN__+0x66>

    /* get FEn (Frame Error) DORn (Data OverRun) UPEn (USART Parity Error) bits */
    #if defined(FE) && defined(DOR) && defined(UPE)
    lastRxError = usr & (_BV(FE) | _BV(DOR) | _BV(UPE) );
    #elif defined(FE0) && defined(DOR0) && defined(UPE0)
    lastRxError = usr & (_BV(FE0) | _BV(DOR0) | _BV(UPE0) );
 2f6:	8c 71       	andi	r24, 0x1C	; 28
    #elif defined(FE) && defined(DOR)
    lastRxError = usr & (_BV(FE) | _BV(DOR) );
    #endif

    /* calculate buffer index */
    tmphead = ( UART_RxHead + 1) & UART_RX_BUFFER_MASK;
 2f8:	e0 91 17 03 	lds	r30, 0x0317	; 0x800317 <UART_RxHead>
 2fc:	ef 5f       	subi	r30, 0xFF	; 255
 2fe:	ef 73       	andi	r30, 0x3F	; 63

    if (tmphead == UART_RxTail)
 300:	90 91 16 03 	lds	r25, 0x0316	; 0x800316 <UART_RxTail>
 304:	e9 17       	cp	r30, r25
 306:	39 f0       	breq	.+14     	; 0x316 <__vector_18+0x3c>
        lastRxError = UART_BUFFER_OVERFLOW >> 8;
    }
    else
    {
        /* store new index */
        UART_RxHead = tmphead;
 308:	e0 93 17 03 	sts	0x0317, r30	; 0x800317 <UART_RxHead>
        /* store received data in buffer */
        UART_RxBuf[tmphead] = data;
 30c:	f0 e0       	ldi	r31, 0x00	; 0
 30e:	e6 5e       	subi	r30, 0xE6	; 230
 310:	fc 4f       	sbci	r31, 0xFC	; 252
 312:	20 83       	st	Z, r18
 314:	01 c0       	rjmp	.+2      	; 0x318 <__vector_18+0x3e>
    tmphead = ( UART_RxHead + 1) & UART_RX_BUFFER_MASK;

    if (tmphead == UART_RxTail)
    {
        /* error: receive buffer overflow */
        lastRxError = UART_BUFFER_OVERFLOW >> 8;
 316:	82 e0       	ldi	r24, 0x02	; 2
        /* store new index */
        UART_RxHead = tmphead;
        /* store received data in buffer */
        UART_RxBuf[tmphead] = data;
    }
    UART_LastRxError |= lastRxError;
 318:	90 91 15 03 	lds	r25, 0x0315	; 0x800315 <UART_LastRxError>
 31c:	89 2b       	or	r24, r25
 31e:	80 93 15 03 	sts	0x0315, r24	; 0x800315 <UART_LastRxError>
}
 322:	ff 91       	pop	r31
 324:	ef 91       	pop	r30
 326:	9f 91       	pop	r25
 328:	8f 91       	pop	r24
 32a:	2f 91       	pop	r18
 32c:	0f 90       	pop	r0
 32e:	0f be       	out	0x3f, r0	; 63
 330:	0f 90       	pop	r0
 332:	1f 90       	pop	r1
 334:	18 95       	reti

00000336 <__vector_19>:

/*************************************************************************
 * Function: UART Data Register Empty interrupt
 * Purpose:  called when the UART is ready to transmit the next byte
 **************************************************************************/
{
 336:	1f 92       	push	r1
 338:	0f 92       	push	r0
 33a:	0f b6       	in	r0, 0x3f	; 63
 33c:	0f 92       	push	r0
 33e:	11 24       	eor	r1, r1
 340:	8f 93       	push	r24
 342:	9f 93       	push	r25
 344:	ef 93       	push	r30
 346:	ff 93       	push	r31
    unsigned char tmptail;


    if (UART_TxHead != UART_TxTail)
 348:	90 91 19 03 	lds	r25, 0x0319	; 0x800319 <UART_TxHead>
 34c:	80 91 18 03 	lds	r24, 0x0318	; 0x800318 <UART_TxTail>
 350:	98 17       	cp	r25, r24
 352:	69 f0       	breq	.+26     	; 0x36e <__vector_19+0x38>
    {
        /* calculate and store new buffer index */
        tmptail     = (UART_TxTail + 1) & UART_TX_BUFFER_MASK;
 354:	e0 91 18 03 	lds	r30, 0x0318	; 0x800318 <UART_TxTail>
 358:	ef 5f       	subi	r30, 0xFF	; 255
 35a:	ef 73       	andi	r30, 0x3F	; 63
        UART_TxTail = tmptail;
 35c:	e0 93 18 03 	sts	0x0318, r30	; 0x800318 <UART_TxTail>
        /* get one byte from buffer and write it to UART */
        UART0_DATA = UART_TxBuf[tmptail]; /* start transmission */
 360:	f0 e0       	ldi	r31, 0x00	; 0
 362:	e6 5a       	subi	r30, 0xA6	; 166
 364:	fc 4f       	sbci	r31, 0xFC	; 252
 366:	80 81       	ld	r24, Z
 368:	80 93 c6 00 	sts	0x00C6, r24	; 0x8000c6 <__DATA_REGION_ORIGIN__+0x66>
 36c:	05 c0       	rjmp	.+10     	; 0x378 <__vector_19+0x42>
    }
    else
    {
        /* tx buffer empty, disable UDRE interrupt */
        UART0_CONTROL &= ~_BV(UART0_UDRIE);
 36e:	e1 ec       	ldi	r30, 0xC1	; 193
 370:	f0 e0       	ldi	r31, 0x00	; 0
 372:	80 81       	ld	r24, Z
 374:	8f 7d       	andi	r24, 0xDF	; 223
 376:	80 83       	st	Z, r24
    }
}
 378:	ff 91       	pop	r31
 37a:	ef 91       	pop	r30
 37c:	9f 91       	pop	r25
 37e:	8f 91       	pop	r24
 380:	0f 90       	pop	r0
 382:	0f be       	out	0x3f, r0	; 63
 384:	0f 90       	pop	r0
 386:	1f 90       	pop	r1
 388:	18 95       	reti

0000038a <__udivmodhi4>:
 38a:	aa 1b       	sub	r26, r26
 38c:	bb 1b       	sub	r27, r27
 38e:	51 e1       	ldi	r21, 0x11	; 17
 390:	07 c0       	rjmp	.+14     	; 0x3a0 <__udivmodhi4_ep>

00000392 <__udivmodhi4_loop>:
 392:	aa 1f       	adc	r26, r26
 394:	bb 1f       	adc	r27, r27
 396:	a6 17       	cp	r26, r22
 398:	b7 07       	cpc	r27, r23
 39a:	10 f0       	brcs	.+4      	; 0x3a0 <__udivmodhi4_ep>
 39c:	a6 1b       	sub	r26, r22
 39e:	b7 0b       	sbc	r27, r23

000003a0 <__udivmodhi4_ep>:
 3a0:	88 1f       	adc	r24, r24
 3a2:	99 1f       	adc	r25, r25
 3a4:	5a 95       	dec	r21
 3a6:	a9 f7       	brne	.-22     	; 0x392 <__udivmodhi4_loop>
 3a8:	80 95       	com	r24
 3aa:	90 95       	com	r25
 3ac:	bc 01       	movw	r22, r24
 3ae:	cd 01       	movw	r24, r26
 3b0:	08 95       	ret

000003b2 <_exit>:
 3b2:	f8 94       	cli

000003b4 <__stop_program>:
 3b4:	ff cf       	rjmp	.-2      	; 0x3b4 <__stop_program>
